; Function Attrs: mustprogress uwtable
define dso_local noundef zeroext i1 @_ZN15cmFileInstaller7InstallERKNSt7__cxx1112basic_stringIcSt11char_traitsIcESaIcEEES7_(ptr noundef nonnull align 8 dereferenceable(328) %0, ptr noundef nonnull align 8 dereferenceable(32) %1, ptr noundef nonnull align 8 dereferenceable(32) %2) unnamed_addr #3 align 2 {
  %4 = getelementptr inbounds i8, ptr %0, i64 244
  %5 = load i32, ptr %4, align 4
  %6 = icmp eq i32 %5, 6
  br i1 %6, label %7, label %11

7:                                                ; preds = %3
  %8 = tail call noundef zeroext i1 @_ZNKSt7__cxx1112basic_stringIcSt11char_traitsIcESaIcEE5emptyEv(ptr noundef nonnull align 8 dereferenceable(32) %1) #17
  br i1 %8, label %9, label %11

9:                                                ; preds = %7
  %10 = tail call noundef zeroext i1 @_ZN12cmFileCopier16InstallDirectoryERKNSt7__cxx1112basic_stringIcSt11char_traitsIcESaIcEEES7_NS_15MatchPropertiesE(ptr noundef nonnull align 8 dereferenceable(244) %0, ptr noundef nonnull align 8 dereferenceable(32) %1, ptr noundef nonnull align 8 dereferenceable(32) %2, i64 0)
  br label %13

11:                                               ; preds = %7, %3
  %12 = tail call noundef zeroext i1 @_ZN12cmFileCopier7InstallERKNSt7__cxx1112basic_stringIcSt11char_traitsIcESaIcEEES7_(ptr noundef nonnull align 8 dereferenceable(244) %0, ptr noundef nonnull align 8 dereferenceable(32) %1, ptr noundef nonnull align 8 dereferenceable(32) %2)
  br label %13

13:                                               ; preds = %11, %9
  %.0 = phi i1 [ %10, %9 ], [ %12, %11 ]
  ret i1 %.0
}